; Function Attrs: null_pointer_is_valid sspstrong uwtable
define internal i32 @dissect_f1ap_NRUERLFReportContainer(ptr noundef %0, i32 noundef %1, ptr noundef %2, ptr noundef %3, i32 noundef %4) #0 {
  %6 = alloca ptr, align 8
  call void @llvm.lifetime.start.p0(i64 8, ptr nonnull %6) #6
  store ptr null, ptr %6, align 8
  %7 = call i32 @dissect_per_octet_string(ptr noundef %0, i32 noundef %1, ptr noundef %2, ptr noundef %3, i32 noundef %4, i32 noundef -1, i32 noundef -1, i1 noundef zeroext false, ptr noundef nonnull %6)
  %8 = load ptr, ptr %6, align 8
  %.not = icmp eq ptr %8, null
  br i1 %.not, label %18, label %9

9:                                                ; preds = %5
  %10 = getelementptr inbounds nuw i8, ptr %2, i64 24
  %11 = load ptr, ptr %10, align 8
  %12 = load i32, ptr @ett_f1ap_NRUERLFReportContainer, align 4
  %13 = call ptr @proto_item_add_subtree(ptr noundef %11, i32 noundef %12)
  %14 = load ptr, ptr %6, align 8
  %15 = getelementptr inbounds nuw i8, ptr %2, i64 16
  %16 = load ptr, ptr %15, align 8
  %17 = call i32 @dissect_nr_rrc_nr_RLF_Report_r16_PDU(ptr noundef %14, ptr noundef %16, ptr noundef %13, ptr noundef null)
  br label %18

18:                                               ; preds = %9, %5
  call void @llvm.lifetime.end.p0(i64 8, ptr nonnull %6) #6
  ret i32 %7
}